
led.elf:     file format elf32-littlearm

Disassembly of section .text:

00000000 <_start>:
   0:	e3a0da01 	mov	sp, #4096	; 0x1000
   4:	e3a00004 	mov	r0, #4	; 0x4
   8:	eb000005 	bl	24 <led_on>
   c:	e59f000c 	ldr	r0, [pc, #12]	; 20 <.text+0x20>
  10:	eb000021 	bl	9c <delay>
  14:	e3a00005 	mov	r0, #5	; 0x5
  18:	eb000001 	bl	24 <led_on>

0000001c <halt>:
  1c:	eafffffe 	b	1c <halt>
  20:	000186a0 	andeq	r8, r1, r0, lsr #13

00000024 <led_on>:
  24:	e1a0c00d 	mov	ip, sp
  28:	e92dd800 	stmdb	sp!, {fp, ip, lr, pc}
  2c:	e24cb004 	sub	fp, ip, #4	; 0x4
  30:	e24dd00c 	sub	sp, sp, #12	; 0xc
  34:	e50b0010 	str	r0, [fp, #-16]
  38:	e3a03456 	mov	r3, #1442840576	; 0x56000000
  3c:	e2833050 	add	r3, r3, #80	; 0x50
  40:	e50b3014 	str	r3, [fp, #-20]
  44:	e3a03456 	mov	r3, #1442840576	; 0x56000000
  48:	e2833054 	add	r3, r3, #84	; 0x54
  4c:	e50b3018 	str	r3, [fp, #-24]
  50:	e51b3010 	ldr	r3, [fp, #-16]
  54:	e3530004 	cmp	r3, #4	; 0x4
  58:	1a000003 	bne	6c <led_on+0x48>
  5c:	e51b2014 	ldr	r2, [fp, #-20]
  60:	e3a03c01 	mov	r3, #256	; 0x100
  64:	e5823000 	str	r3, [r2]
  68:	ea000005 	b	84 <led_on+0x60>
  6c:	e51b3010 	ldr	r3, [fp, #-16]
  70:	e3530005 	cmp	r3, #5	; 0x5
  74:	1a000002 	bne	84 <led_on+0x60>
  78:	e51b2014 	ldr	r2, [fp, #-20]
  7c:	e3a03b01 	mov	r3, #1024	; 0x400
  80:	e5823000 	str	r3, [r2]
  84:	e51b3018 	ldr	r3, [fp, #-24]
  88:	e3a02000 	mov	r2, #0	; 0x0
  8c:	e5832000 	str	r2, [r3]
  90:	e1a00003 	mov	r0, r3
  94:	e24bd00c 	sub	sp, fp, #12	; 0xc
  98:	e89da800 	ldmia	sp, {fp, sp, pc}

0000009c <delay>:
  9c:	e1a0c00d 	mov	ip, sp
  a0:	e92dd800 	stmdb	sp!, {fp, ip, lr, pc}
  a4:	e24cb004 	sub	fp, ip, #4	; 0x4
  a8:	e24dd004 	sub	sp, sp, #4	; 0x4
  ac:	e50b0010 	str	r0, [fp, #-16]
  b0:	e51b3010 	ldr	r3, [fp, #-16]
  b4:	e2433001 	sub	r3, r3, #1	; 0x1
  b8:	e50b3010 	str	r3, [fp, #-16]
  bc:	e51b3010 	ldr	r3, [fp, #-16]
  c0:	e3730001 	cmn	r3, #1	; 0x1
  c4:	0a000000 	beq	cc <delay+0x30>
  c8:	eafffff8 	b	b0 <delay+0x14>
  cc:	e89da808 	ldmia	sp, {r3, fp, sp, pc}

000000d0 <main>:
  d0:	e1a0c00d 	mov	ip, sp
  d4:	e92dd800 	stmdb	sp!, {fp, ip, lr, pc}
  d8:	e24cb004 	sub	fp, ip, #4	; 0x4
  dc:	e24dd008 	sub	sp, sp, #8	; 0x8
  e0:	e3a03456 	mov	r3, #1442840576	; 0x56000000
  e4:	e2833050 	add	r3, r3, #80	; 0x50
  e8:	e50b3010 	str	r3, [fp, #-16]
  ec:	e3a03456 	mov	r3, #1442840576	; 0x56000000
  f0:	e2833054 	add	r3, r3, #84	; 0x54
  f4:	e50b3014 	str	r3, [fp, #-20]
  f8:	e51b2010 	ldr	r2, [fp, #-16]
  fc:	e3a03c01 	mov	r3, #256	; 0x100
 100:	e5823000 	str	r3, [r2]
 104:	e51b2014 	ldr	r2, [fp, #-20]
 108:	e3a03000 	mov	r3, #0	; 0x0
 10c:	e5823000 	str	r3, [r2]
 110:	e3a03000 	mov	r3, #0	; 0x0
 114:	e1a00003 	mov	r0, r3
 118:	e24bd00c 	sub	sp, fp, #12	; 0xc
 11c:	e89da800 	ldmia	sp, {fp, sp, pc}